target datalayout = "e-m:e-p270:32:32-p271:32:32-p272:64:64-i64:64-i128:128-f80:128-n8:16:32:64-S128"
target triple = "x86_64-pc-linux-gnu"

%struct._GtkTreeIter = type { i32, ptr, ptr, ptr }
%struct.popup_info = type { ptr, ptr, i32, i32, ptr, ptr, ptr, %struct._GtkTreeIter, ptr, ptr, i32, i8, ptr, ptr, i32, ptr, ptr, i32, i32 }
%struct.specific_info = type { i32, i32, ptr, ptr, ptr }

@popup_list = external global ptr, align 8

; Function Attrs: nounwind uwtable
define dso_local i32 @delete_popup(ptr noundef %0, ptr noundef %1, ptr noundef %2) #0 {
  %4 = alloca ptr, align 8
  %5 = alloca ptr, align 8
  %6 = alloca ptr, align 8
  %7 = alloca ptr, align 8
  %8 = alloca ptr, align 8
  store ptr %0, ptr %4, align 8
  store ptr %1, ptr %5, align 8
  store ptr %2, ptr %6, align 8
  call void @llvm.lifetime.start.p0(i64 8, ptr %7) #11
  %9 = load ptr, ptr @popup_list, align 8
  %10 = call ptr @list_iterator_create(ptr noundef %9)
  store ptr %10, ptr %7, align 8
  call void @llvm.lifetime.start.p0(i64 8, ptr %8) #11
  store ptr null, ptr %8, align 8
  br label %11

11:                                               ; preds = %34, %3
  %12 = load ptr, ptr %7, align 8
  %13 = call ptr @list_next(ptr noundef %12)
  store ptr %13, ptr %8, align 8
  %14 = icmp ne ptr %13, null
  br i1 %14, label %15, label %35

15:                                               ; preds = %11
  %16 = load ptr, ptr %8, align 8
  %17 = getelementptr inbounds nuw %struct.popup_info, ptr %16, i32 0, i32 15
  %18 = load ptr, ptr %17, align 8
  %19 = icmp ne ptr %18, null
  br i1 %19, label %20, label %34

20:                                               ; preds = %15
  %21 = load ptr, ptr %8, align 8
  %22 = getelementptr inbounds nuw %struct.popup_info, ptr %21, i32 0, i32 15
  %23 = load ptr, ptr %22, align 8
  %24 = getelementptr inbounds nuw %struct.specific_info, ptr %23, i32 0, i32 3
  %25 = load ptr, ptr %24, align 8
  %26 = load ptr, ptr %6, align 8
  %27 = call i32 @xstrcmp(ptr noundef %25, ptr noundef %26)
  %28 = icmp ne i32 %27, 0
  br i1 %28, label %33, label %29

29:                                               ; preds = %20
  %30 = load ptr, ptr %7, align 8
  %31 = call ptr @list_remove(ptr noundef %30)
  %32 = load ptr, ptr %8, align 8
  call void @destroy_popup_info(ptr noundef %32)
  br label %35

33:                                               ; preds = %20
  br label %34

34:                                               ; preds = %33, %15
  br label %11, !llvm.loop !41

35:                                               ; preds = %29, %11
  %36 = load ptr, ptr %7, align 8
  call void @list_iterator_destroy(ptr noundef %36)
  call void @llvm.lifetime.end.p0(i64 8, ptr %8) #11
  call void @llvm.lifetime.end.p0(i64 8, ptr %7) #11
  ret i32 0
}