; Function Attrs: nounwind uwtable
define dso_local noundef i32 @delete_popup(ptr readnone captures(none) %0, ptr readnone captures(none) %1, ptr noundef %2) #2 {
  %4 = load ptr, ptr @popup_list, align 8
  %5 = tail call ptr @list_iterator_create(ptr noundef %4) #16
  %6 = tail call ptr @list_next(ptr noundef %5) #16
  %.not11 = icmp eq ptr %6, null
  br i1 %.not11, label %.loopexit, label %.lr.ph

.lr.ph:                                           ; preds = %3, %16
  %7 = phi ptr [ %17, %16 ], [ %6, %3 ]
  %8 = getelementptr inbounds nuw i8, ptr %7, i64 128
  %9 = load ptr, ptr %8, align 8
  %.not8 = icmp eq ptr %9, null
  br i1 %.not8, label %16, label %10

10:                                               ; preds = %.lr.ph
  %11 = getelementptr inbounds nuw i8, ptr %9, i64 16
  %12 = load ptr, ptr %11, align 8
  %13 = tail call i32 @xstrcmp(ptr noundef %12, ptr noundef %2) #16
  %.not9 = icmp eq i32 %13, 0
  br i1 %.not9, label %14, label %16

14:                                               ; preds = %10
  %15 = tail call ptr @list_remove(ptr noundef %5) #16
  tail call void @destroy_popup_info(ptr noundef nonnull %7)
  br label %.loopexit

16:                                               ; preds = %10, %.lr.ph
  %17 = tail call ptr @list_next(ptr noundef %5) #16
  %.not = icmp eq ptr %17, null
  br i1 %.not, label %.loopexit, label %.lr.ph, !llvm.loop !39

.loopexit:                                        ; preds = %16, %3, %14
  tail call void @list_iterator_destroy(ptr noundef %5) #16
  ret i32 0
}